; Function Attrs: mustprogress uwtable
define void @_ZNK6icu_7513OlsonTimeZone18getOffsetFromLocalEd20UTimeZoneLocalOptionS1_RiS2_R10UErrorCode(ptr nocapture noundef nonnull readonly align 8 dereferenceable(224) %this, double noundef %date, i32 noundef %nonExistingTimeOpt, i32 noundef %duplicatedTimeOpt, ptr noundef nonnull align 4 dereferenceable(4) %rawoff, ptr noundef nonnull align 4 dereferenceable(4) %dstoff, ptr noundef nonnull align 4 dereferenceable(4) %ec) unnamed_addr #2 align 2 {
entry:
  %0 = load i32, ptr %ec, align 4
  %cmp.i = icmp slt i32 %0, 1
  br i1 %cmp.i, label %if.end, label %if.end5

if.end:                                           ; preds = %entry
  %finalZone = getelementptr inbounds i8, ptr %this, i64 128
  %1 = load ptr, ptr %finalZone, align 8
  %cmp.not = icmp eq ptr %1, null
  %finalStartMillis = getelementptr inbounds i8, ptr %this, i64 136
  %2 = load double, ptr %finalStartMillis, align 8
  %cmp2 = fcmp ugt double %2, %date
  %or.cond = select i1 %cmp.not, i1 true, i1 %cmp2
  br i1 %or.cond, label %if.else, label %if.then3

if.then3:                                         ; preds = %if.end
  %vtable = load ptr, ptr %1, align 8
  %vfn = getelementptr inbounds i8, ptr %vtable, i64 160
  %3 = load ptr, ptr %vfn, align 8
  tail call void %3(ptr noundef nonnull align 8 dereferenceable(160) %1, double noundef %date, i32 noundef %nonExistingTimeOpt, i32 noundef %duplicatedTimeOpt, ptr noundef nonnull align 4 dereferenceable(4) %rawoff, ptr noundef nonnull align 4 dereferenceable(4) %dstoff, ptr noundef nonnull align 4 dereferenceable(4) %ec)
  br label %if.end5

if.else:                                          ; preds = %if.end
  tail call void @_ZNK6icu_7513OlsonTimeZone19getHistoricalOffsetEdaiiRiS1_(ptr noundef nonnull align 8 dereferenceable(224) %this, double noundef %date, i8 noundef signext 1, i32 noundef %nonExistingTimeOpt, i32 noundef %duplicatedTimeOpt, ptr noundef nonnull align 4 dereferenceable(4) %rawoff, ptr noundef nonnull align 4 dereferenceable(4) %dstoff)
  br label %if.end5

if.end5:                                          ; preds = %entry, %if.else, %if.then3
  ret void
}